; ModuleID = 'source-C-CXX/22/495.cpp'
source_filename = "source-C-CXX/22/495.cpp"
target datalayout = "e-m:e-p270:32:32-p271:32:32-p272:64:64-i64:64-f80:128-n8:16:32:64-S128"
target triple = "x86_64-pc-linux-gnu"

%"class.std::ios_base::Init" = type { i8 }
%"class.std::basic_istream" = type { i32 (...)**, i64, %"class.std::basic_ios" }
%"class.std::basic_ios" = type { %"class.std::ios_base", %"class.std::basic_ostream"*, i8, i8, %"class.std::basic_streambuf"*, %"class.std::ctype"*, %"class.std::num_put"*, %"class.std::num_get"* }
%"class.std::ios_base" = type { i32 (...)**, i64, i64, i32, i32, i32, %"struct.std::ios_base::_Callback_list"*, %"struct.std::ios_base::_Words", [8 x %"struct.std::ios_base::_Words"], i32, %"struct.std::ios_base::_Words"*, %"class.std::locale" }
%"struct.std::ios_base::_Callback_list" = type { %"struct.std::ios_base::_Callback_list"*, void (i32, %"class.std::ios_base"*, i32)*, i32, i32 }
%"struct.std::ios_base::_Words" = type { i8*, i64 }
%"class.std::locale" = type { %"class.std::locale::_Impl"* }
%"class.std::locale::_Impl" = type { i32, %"class.std::locale::facet"**, i64, %"class.std::locale::facet"**, i8** }
%"class.std::locale::facet" = type <{ i32 (...)**, i32, [4 x i8] }>
%"class.std::basic_ostream" = type { i32 (...)**, %"class.std::basic_ios" }
%"class.std::basic_streambuf" = type { i32 (...)**, i8*, i8*, i8*, i8*, i8*, i8*, %"class.std::locale" }
%"class.std::ctype" = type <{ %"class.std::locale::facet.base", [4 x i8], %struct.__locale_struct*, i8, [7 x i8], i32*, i32*, i16*, i8, [256 x i8], [256 x i8], i8, [6 x i8] }>
%"class.std::locale::facet.base" = type <{ i32 (...)**, i32 }>
%struct.__locale_struct = type { [13 x %struct.__locale_data*], i16*, i32*, i32*, [13 x i8*] }
%struct.__locale_data = type opaque
%"class.std::num_put" = type { %"class.std::locale::facet.base", [4 x i8] }
%"class.std::num_get" = type { %"class.std::locale::facet.base", [4 x i8] }

@_ZStL8__ioinit = internal global %"class.std::ios_base::Init" zeroinitializer, align 1
@__dso_handle = external hidden global i8
@Str = dso_local global [100 x [100 x i8]] zeroinitializer, align 16
@_ZSt3cin = external global %"class.std::basic_istream", align 8
@_ZSt4cout = external global %"class.std::basic_ostream", align 8
@llvm.global_ctors = appending global [1 x { i32, void ()*, i8* }] [{ i32, void ()*, i8* } { i32 65535, void ()* @_GLOBAL__sub_I_495.cpp, i8* null }]

declare void @_ZNSt8ios_base4InitC1Ev(%"class.std::ios_base::Init"* nonnull align 1 dereferenceable(1)) unnamed_addr #0

; Function Attrs: nounwind
declare void @_ZNSt8ios_base4InitD1Ev(%"class.std::ios_base::Init"* nonnull align 1 dereferenceable(1)) unnamed_addr #1

; Function Attrs: nofree nounwind
declare i32 @__cxa_atexit(void (i8*)*, i8*, i8*) local_unnamed_addr #2

; Function Attrs: mustprogress norecurse sspstrong uwtable
define dso_local i32 @main() local_unnamed_addr #3 {
  %1 = alloca i8, align 1
  %2 = alloca i8, align 1
  call void @llvm.lifetime.start.p0i8(i64 1, i8* nonnull %2) #7
  %3 = call nonnull align 8 dereferenceable(16) %"class.std::basic_istream"* @_ZNSi3getERc(%"class.std::basic_istream"* nonnull align 8 dereferenceable(16) @_ZSt3cin, i8* nonnull align 1 dereferenceable(1) %2)
  %4 = load i8, i8* %2, align 1, !tbaa !5
  %5 = icmp eq i8 %4, 10
  br i1 %5, label %22, label %6

6:                                                ; preds = %0, %17
  %7 = phi i8 [ %20, %17 ], [ %4, %0 ]
  %8 = phi i64 [ %18, %17 ], [ 0, %0 ]
  br label %9

9:                                                ; preds = %6, %12
  %10 = phi i8 [ %7, %6 ], [ %16, %12 ]
  %11 = phi i64 [ 0, %6 ], [ %14, %12 ]
  switch i8 %10, label %12 [
    i8 10, label %22
    i8 32, label %17
  ]

12:                                               ; preds = %9
  %13 = getelementptr inbounds [100 x [100 x i8]], [100 x [100 x i8]]* @Str, i64 0, i64 %8, i64 %11
  store i8 %10, i8* %13, align 1, !tbaa !5
  %14 = add nuw i64 %11, 1
  %15 = call nonnull align 8 dereferenceable(16) %"class.std::basic_istream"* @_ZNSi3getERc(%"class.std::basic_istream"* nonnull align 8 dereferenceable(16) @_ZSt3cin, i8* nonnull align 1 dereferenceable(1) %2)
  %16 = load i8, i8* %2, align 1, !tbaa !5
  br label %9, !llvm.loop !8

17:                                               ; preds = %9
  %18 = add nuw i64 %8, 1
  %19 = call nonnull align 8 dereferenceable(16) %"class.std::basic_istream"* @_ZNSi3getERc(%"class.std::basic_istream"* nonnull align 8 dereferenceable(16) @_ZSt3cin, i8* nonnull align 1 dereferenceable(1) %2)
  %20 = load i8, i8* %2, align 1, !tbaa !5
  %21 = icmp eq i8 %20, 10
  br i1 %21, label %22, label %6, !llvm.loop !10

22:                                               ; preds = %17, %9, %0
  br label %23

23:                                               ; preds = %57, %22
  %24 = phi i32 [ 99, %22 ], [ %58, %57 ]
  %25 = zext i32 %24 to i64
  %26 = getelementptr inbounds [100 x [100 x i8]], [100 x [100 x i8]]* @Str, i64 0, i64 %25, i64 0
  %27 = load i8, i8* %26, align 4, !tbaa !5
  %28 = icmp eq i8 %27, 0
  br i1 %28, label %29, label %35

29:                                               ; preds = %23
  %30 = add nsw i32 %24, -1
  %31 = zext i32 %30 to i64
  %32 = getelementptr inbounds [100 x [100 x i8]], [100 x [100 x i8]]* @Str, i64 0, i64 %31, i64 0
  %33 = load i8, i8* %32, align 4, !tbaa !5
  %34 = icmp eq i8 %33, 0
  br i1 %34, label %51, label %35

35:                                               ; preds = %51, %29, %23
  %36 = phi i32 [ %24, %23 ], [ %30, %29 ], [ %52, %51 ]
  %37 = icmp sgt i32 %36, 0
  br i1 %37, label %38, label %48

38:                                               ; preds = %35
  %39 = zext i32 %36 to i64
  br label %40

40:                                               ; preds = %38, %40
  %41 = phi i64 [ %39, %38 ], [ %46, %40 ]
  %42 = getelementptr inbounds [100 x [100 x i8]], [100 x [100 x i8]]* @Str, i64 0, i64 %41, i64 0
  %43 = call i64 @strlen(i8* noundef nonnull dereferenceable(1) %42) #7
  %44 = call nonnull align 8 dereferenceable(8) %"class.std::basic_ostream"* @_ZSt16__ostream_insertIcSt11char_traitsIcEERSt13basic_ostreamIT_T0_ES6_PKS3_l(%"class.std::basic_ostream"* nonnull align 8 dereferenceable(8) @_ZSt4cout, i8* nonnull %42, i64 %43)
  call void @llvm.lifetime.start.p0i8(i64 1, i8* nonnull %1)
  store i8 32, i8* %1, align 1, !tbaa !5
  %45 = call nonnull align 8 dereferenceable(8) %"class.std::basic_ostream"* @_ZSt16__ostream_insertIcSt11char_traitsIcEERSt13basic_ostreamIT_T0_ES6_PKS3_l(%"class.std::basic_ostream"* nonnull align 8 dereferenceable(8) @_ZSt4cout, i8* nonnull %1, i64 1)
  call void @llvm.lifetime.end.p0i8(i64 1, i8* nonnull %1)
  %46 = add nsw i64 %41, -1
  %47 = icmp sgt i64 %41, 1
  br i1 %47, label %40, label %48, !llvm.loop !11

48:                                               ; preds = %57, %40, %35
  %49 = call i64 @strlen(i8* noundef nonnull dereferenceable(1) getelementptr inbounds ([100 x [100 x i8]], [100 x [100 x i8]]* @Str, i64 0, i64 0, i64 0)) #7
  %50 = call nonnull align 8 dereferenceable(8) %"class.std::basic_ostream"* @_ZSt16__ostream_insertIcSt11char_traitsIcEERSt13basic_ostreamIT_T0_ES6_PKS3_l(%"class.std::basic_ostream"* nonnull align 8 dereferenceable(8) @_ZSt4cout, i8* nonnull getelementptr inbounds ([100 x [100 x i8]], [100 x [100 x i8]]* @Str, i64 0, i64 0, i64 0), i64 %49)
  call void @llvm.lifetime.end.p0i8(i64 1, i8* nonnull %2) #7
  ret i32 0

51:                                               ; preds = %29
  %52 = add nsw i32 %24, -2
  %53 = zext i32 %52 to i64
  %54 = getelementptr inbounds [100 x [100 x i8]], [100 x [100 x i8]]* @Str, i64 0, i64 %53, i64 0
  %55 = load i8, i8* %54, align 4, !tbaa !5
  %56 = icmp eq i8 %55, 0
  br i1 %56, label %57, label %35

57:                                               ; preds = %51
  %58 = add nsw i32 %24, -3
  %59 = icmp ugt i32 %52, 1
  br i1 %59, label %23, label %48, !llvm.loop !12
}

; Function Attrs: argmemonly mustprogress nofree nosync nounwind willreturn
declare void @llvm.lifetime.start.p0i8(i64 immarg, i8* nocapture) #4

declare nonnull align 8 dereferenceable(16) %"class.std::basic_istream"* @_ZNSi3getERc(%"class.std::basic_istream"* nonnull align 8 dereferenceable(16), i8* nonnull align 1 dereferenceable(1)) local_unnamed_addr #0

; Function Attrs: argmemonly mustprogress nofree nosync nounwind willreturn
declare void @llvm.lifetime.end.p0i8(i64 immarg, i8* nocapture) #4

declare nonnull align 8 dereferenceable(8) %"class.std::basic_ostream"* @_ZSt16__ostream_insertIcSt11char_traitsIcEERSt13basic_ostreamIT_T0_ES6_PKS3_l(%"class.std::basic_ostream"* nonnull align 8 dereferenceable(8), i8*, i64) local_unnamed_addr #0

; Function Attrs: argmemonly mustprogress nofree nounwind readonly willreturn
declare i64 @strlen(i8* nocapture) local_unnamed_addr #5

; Function Attrs: sspstrong uwtable
define internal void @_GLOBAL__sub_I_495.cpp() #6 section ".text.startup" {
  tail call void @_ZNSt8ios_base4InitC1Ev(%"class.std::ios_base::Init"* nonnull align 1 dereferenceable(1) @_ZStL8__ioinit)
  %1 = tail call i32 @__cxa_atexit(void (i8*)* bitcast (void (%"class.std::ios_base::Init"*)* @_ZNSt8ios_base4InitD1Ev to void (i8*)*), i8* getelementptr inbounds (%"class.std::ios_base::Init", %"class.std::ios_base::Init"* @_ZStL8__ioinit, i64 0, i32 0), i8* nonnull @__dso_handle) #7
  ret void
}


!llvm.module.flags = !{!0, !1, !2, !3}
!llvm.ident = !{!4}

!0 = !{i32 1, !"wchar_size", i32 4}
!1 = !{i32 7, !"PIC Level", i32 2}
!2 = !{i32 7, !"PIE Level", i32 2}
!3 = !{i32 7, !"uwtable", i32 1}
!4 = !{!"clang version 13.0.0"}
!5 = !{!6, !6, i64 0}
!6 = !{!"omnipotent char", !7, i64 0}
!7 = !{!"Simple C++ TBAA"}
!8 = distinct !{!8, !9}
!9 = !{!"llvm.loop.mustprogress"}
!10 = distinct !{!10, !9}
!11 = distinct !{!11, !9}
!12 = distinct !{!12, !9}
